; Function Attrs: nounwind uwtable
define dso_local noundef zeroext i1 @tuplestore_advance(ptr noundef %0, i1 noundef zeroext %1) local_unnamed_addr #0 {
  %3 = alloca i8, align 1
  call void @llvm.lifetime.start.p0(i64 1, ptr nonnull %3) #9
  %4 = call fastcc ptr @tuplestore_gettuple(ptr noundef %0, i1 noundef zeroext %1, ptr noundef %3)
  %.not = icmp ne ptr %4, null
  br i1 %.not, label %5, label %9

5:                                                ; preds = %2
  %6 = load i8, ptr %3, align 1, !range !4, !noundef !5
  %7 = trunc nuw i8 %6 to i1
  br i1 %7, label %8, label %9

8:                                                ; preds = %5
  tail call void @pfree(ptr noundef nonnull %4) #9
  br label %9

9:                                                ; preds = %2, %5, %8
  call void @llvm.lifetime.end.p0(i64 1, ptr nonnull %3) #9
  ret i1 %.not
}